target datalayout = "e-m:e-p270:32:32-p271:32:32-p272:64:64-i64:64-i128:128-f80:128-n8:16:32:64-S128"
target triple = "x86_64-pc-linux-gnu"

%struct._ir_insn = type { %struct.anon, %union.anon.5 }
%struct.anon = type { %union.anon, %union.anon.4 }
%union.anon = type { i32 }
%union.anon.4 = type { i32 }
%union.anon.5 = type { %union._ir_val }
%union._ir_val = type { double }
%struct._ir_ctx = type { ptr, i32, i32, i32, i32, i32, i32, i32, i32, i32, i32, %struct._ir_insn, ptr, ptr, ptr, i32, i32, i32, ptr, ptr, ptr, ptr, ptr, i32, i32, i64, i32, i32, i32, i64, i32, i32, i32, i32, ptr, ptr, ptr, ptr, ptr, ptr, %union.anon.13, ptr, i32, i32, i32, i64, i32, i32, i32, ptr, ptr, ptr, ptr, %struct._ir_strtab, [61 x i32], [14 x i32] }
%union.anon.13 = type { ptr }
%struct._ir_strtab = type { ptr, i32, i32, i32, i32, ptr, i32, i32 }

; Function Attrs: nounwind uwtable
define internal void @ir_grow_top(ptr noundef %0) #0 {
  %2 = alloca ptr, align 8
  %3 = alloca ptr, align 8
  store ptr %0, ptr %2, align 8
  %4 = load ptr, ptr %2, align 8
  %5 = getelementptr inbounds %struct._ir_ctx, ptr %4, i32 0, i32 0
  %6 = load ptr, ptr %5, align 8
  %7 = load ptr, ptr %2, align 8
  %8 = getelementptr inbounds %struct._ir_ctx, ptr %7, i32 0, i32 4
  %9 = load i32, ptr %8, align 4
  %10 = sext i32 %9 to i64
  %11 = sub i64 0, %10
  %12 = getelementptr inbounds %struct._ir_insn, ptr %6, i64 %11
  store ptr %12, ptr %3, align 8
  %13 = load ptr, ptr %2, align 8
  %14 = getelementptr inbounds %struct._ir_ctx, ptr %13, i32 0, i32 2
  %15 = load i32, ptr %14, align 4
  %16 = icmp slt i32 %15, 4096
  br i1 %16, label %17, label %22

17:                                               ; preds = %1
  %18 = load ptr, ptr %2, align 8
  %19 = getelementptr inbounds %struct._ir_ctx, ptr %18, i32 0, i32 2
  %20 = load i32, ptr %19, align 4
  %21 = mul nsw i32 %20, 2
  store i32 %21, ptr %19, align 4
  br label %36

22:                                               ; preds = %1
  %23 = load ptr, ptr %2, align 8
  %24 = getelementptr inbounds %struct._ir_ctx, ptr %23, i32 0, i32 2
  %25 = load i32, ptr %24, align 4
  %26 = icmp slt i32 %25, 8192
  br i1 %26, label %27, label %30

27:                                               ; preds = %22
  %28 = load ptr, ptr %2, align 8
  %29 = getelementptr inbounds %struct._ir_ctx, ptr %28, i32 0, i32 2
  store i32 8192, ptr %29, align 4
  br label %35

30:                                               ; preds = %22
  %31 = load ptr, ptr %2, align 8
  %32 = getelementptr inbounds %struct._ir_ctx, ptr %31, i32 0, i32 2
  %33 = load i32, ptr %32, align 4
  %34 = add nsw i32 %33, 4096
  store i32 %34, ptr %32, align 4
  br label %35

35:                                               ; preds = %30, %27
  br label %36

36:                                               ; preds = %35, %17
  %37 = load ptr, ptr %3, align 8
  %38 = load ptr, ptr %2, align 8
  %39 = getelementptr inbounds %struct._ir_ctx, ptr %38, i32 0, i32 4
  %40 = load i32, ptr %39, align 4
  %41 = load ptr, ptr %2, align 8
  %42 = getelementptr inbounds %struct._ir_ctx, ptr %41, i32 0, i32 2
  %43 = load i32, ptr %42, align 4
  %44 = add nsw i32 %40, %43
  %45 = sext i32 %44 to i64
  %46 = mul i64 %45, 16
  %47 = call ptr @_erealloc(ptr noundef %37, i64 noundef %46) #14
  store ptr %47, ptr %3, align 8
  %48 = load ptr, ptr %3, align 8
  %49 = load ptr, ptr %2, align 8
  %50 = getelementptr inbounds %struct._ir_ctx, ptr %49, i32 0, i32 4
  %51 = load i32, ptr %50, align 4
  %52 = sext i32 %51 to i64
  %53 = getelementptr inbounds %struct._ir_insn, ptr %48, i64 %52
  %54 = load ptr, ptr %2, align 8
  %55 = getelementptr inbounds %struct._ir_ctx, ptr %54, i32 0, i32 0
  store ptr %53, ptr %55, align 8
  ret void
}

; Function Attrs: nounwind uwtable
define hidden void @ir_set_op(ptr noundef %0, i32 noundef %1, i32 noundef %2, i32 noundef %3) #0 {
  %5 = alloca ptr, align 8
  %6 = alloca i32, align 4
  %7 = alloca i32, align 4
  %8 = alloca ptr, align 8
  %9 = alloca ptr, align 8
  %10 = alloca i32, align 4
  %11 = alloca i32, align 4
  %12 = alloca i32, align 4
  %13 = alloca ptr, align 8
  store ptr %0, ptr %9, align 8
  store i32 %1, ptr %10, align 4
  store i32 %2, ptr %11, align 4
  store i32 %3, ptr %12, align 4
  %14 = load ptr, ptr %9, align 8
  %15 = getelementptr inbounds %struct._ir_ctx, ptr %14, i32 0, i32 0
  %16 = load ptr, ptr %15, align 8
  %17 = load i32, ptr %10, align 4
  %18 = sext i32 %17 to i64
  %19 = getelementptr inbounds %struct._ir_insn, ptr %16, i64 %18
  store ptr %19, ptr %13, align 8
  %20 = load ptr, ptr %13, align 8
  %21 = load i32, ptr %11, align 4
  %22 = load i32, ptr %12, align 4
  store ptr %20, ptr %5, align 8
  store i32 %21, ptr %6, align 4
  store i32 %22, ptr %7, align 4
  %23 = load ptr, ptr %5, align 8
  %24 = load i32, ptr %6, align 4
  %25 = sext i32 %24 to i64
  %26 = getelementptr inbounds i32, ptr %23, i64 %25
  store ptr %26, ptr %8, align 8
  %27 = load i32, ptr %7, align 4
  %28 = load ptr, ptr %8, align 8
  store i32 %27, ptr %28, align 4
  ret void
}

; Function Attrs: nounwind uwtable
define hidden i32 @ir_emit_N(ptr noundef %0, i32 noundef %1, i32 noundef %2) #0 {
  %4 = alloca ptr, align 8
  %5 = alloca i32, align 4
  %6 = alloca i32, align 4
  %7 = alloca i32, align 4
  %8 = alloca ptr, align 8
  %9 = alloca i32, align 4
  %10 = alloca ptr, align 8
  store ptr %0, ptr %4, align 8
  store i32 %1, ptr %5, align 4
  store i32 %2, ptr %6, align 4
  %11 = load ptr, ptr %4, align 8
  %12 = getelementptr inbounds %struct._ir_ctx, ptr %11, i32 0, i32 1
  %13 = load i32, ptr %12, align 8
  store i32 %13, ptr %9, align 4
  br label %14

14:                                               ; preds = %28, %3
  %15 = load i32, ptr %9, align 4
  %16 = load i32, ptr %6, align 4
  %17 = sdiv i32 %16, 4
  %18 = add nsw i32 %15, %17
  %19 = load ptr, ptr %4, align 8
  %20 = getelementptr inbounds %struct._ir_ctx, ptr %19, i32 0, i32 2
  %21 = load i32, ptr %20, align 4
  %22 = icmp sge i32 %18, %21
  %23 = xor i1 %22, true
  %24 = xor i1 %23, true
  %25 = zext i1 %24 to i32
  %26 = sext i32 %25 to i64
  %27 = icmp ne i64 %26, 0
  br i1 %27, label %28, label %30

28:                                               ; preds = %14
  %29 = load ptr, ptr %4, align 8
  call void @ir_grow_top(ptr noundef %29)
  br label %14

30:                                               ; preds = %14
  %31 = load i32, ptr %9, align 4
  %32 = add nsw i32 %31, 1
  %33 = load i32, ptr %6, align 4
  %34 = sdiv i32 %33, 4
  %35 = add nsw i32 %32, %34
  %36 = load ptr, ptr %4, align 8
  %37 = getelementptr inbounds %struct._ir_ctx, ptr %36, i32 0, i32 1
  store i32 %35, ptr %37, align 8
  %38 = load ptr, ptr %4, align 8
  %39 = getelementptr inbounds %struct._ir_ctx, ptr %38, i32 0, i32 0
  %40 = load ptr, ptr %39, align 8
  %41 = load i32, ptr %9, align 4
  %42 = sext i32 %41 to i64
  %43 = getelementptr inbounds %struct._ir_insn, ptr %40, i64 %42
  store ptr %43, ptr %10, align 8
  %44 = load i32, ptr %5, align 4
  %45 = load i32, ptr %6, align 4
  %46 = shl i32 %45, 16
  %47 = or i32 %44, %46
  %48 = load ptr, ptr %10, align 8
  %49 = getelementptr inbounds %struct._ir_insn, ptr %48, i32 0, i32 0
  %50 = getelementptr inbounds %struct.anon, ptr %49, i32 0, i32 0
  store i32 %47, ptr %50, align 8
  store i32 1, ptr %7, align 4
  %51 = load ptr, ptr %10, align 8
  %52 = getelementptr inbounds %struct._ir_insn, ptr %51, i32 0, i32 0
  %53 = getelementptr inbounds %struct.anon, ptr %52, i32 0, i32 0
  %54 = getelementptr inbounds [1 x i32], ptr %53, i64 0, i64 0
  %55 = load i32, ptr %7, align 4
  %56 = sext i32 %55 to i64
  %57 = getelementptr inbounds i32, ptr %54, i64 %56
  store ptr %57, ptr %8, align 8
  br label %58

58:                                               ; preds = %65, %30
  %59 = load i32, ptr %7, align 4
  %60 = load i32, ptr %6, align 4
  %61 = or i32 %60, 3
  %62 = icmp sle i32 %59, %61
  br i1 %62, label %63, label %70

63:                                               ; preds = %58
  %64 = load ptr, ptr %8, align 8
  store i32 0, ptr %64, align 4
  br label %65

65:                                               ; preds = %63
  %66 = load i32, ptr %7, align 4
  %67 = add nsw i32 %66, 1
  store i32 %67, ptr %7, align 4
  %68 = load ptr, ptr %8, align 8
  %69 = getelementptr inbounds i32, ptr %68, i32 1
  store ptr %69, ptr %8, align 8
  br label %58

70:                                               ; preds = %58
  %71 = load i32, ptr %9, align 4
  ret i32 %71
}

; Function Attrs: nounwind uwtable
define hidden i32 @_ir_CALL_4(ptr noundef %0, i32 noundef %1, i32 noundef %2, i32 noundef %3, i32 noundef %4, i32 noundef %5, i32 noundef %6) #0 {
  %8 = alloca ptr, align 8
  %9 = alloca i32, align 4
  %10 = alloca i32, align 4
  %11 = alloca i32, align 4
  %12 = alloca i32, align 4
  %13 = alloca i32, align 4
  %14 = alloca i32, align 4
  %15 = alloca i32, align 4
  store ptr %0, ptr %8, align 8
  store i32 %1, ptr %9, align 4
  store i32 %2, ptr %10, align 4
  store i32 %3, ptr %11, align 4
  store i32 %4, ptr %12, align 4
  store i32 %5, ptr %13, align 4
  store i32 %6, ptr %14, align 4
  %16 = load ptr, ptr %8, align 8
  %17 = load i32, ptr %9, align 4
  %18 = trunc i32 %17 to i16
  %19 = zext i16 %18 to i32
  %20 = shl i32 %19, 8
  %21 = or i32 69, %20
  %22 = call i32 @ir_emit_N(ptr noundef %16, i32 noundef %21, i32 noundef 6)
  store i32 %22, ptr %15, align 4
  %23 = load ptr, ptr %8, align 8
  %24 = load i32, ptr %15, align 4
  %25 = load ptr, ptr %8, align 8
  %26 = getelementptr inbounds %struct._ir_ctx, ptr %25, i32 0, i32 40
  %27 = load i32, ptr %26, align 8
  call void @ir_set_op(ptr noundef %23, i32 noundef %24, i32 noundef 1, i32 noundef %27)
  %28 = load ptr, ptr %8, align 8
  %29 = load i32, ptr %15, align 4
  %30 = load i32, ptr %10, align 4
  call void @ir_set_op(ptr noundef %28, i32 noundef %29, i32 noundef 2, i32 noundef %30)
  %31 = load ptr, ptr %8, align 8
  %32 = load i32, ptr %15, align 4
  %33 = load i32, ptr %11, align 4
  call void @ir_set_op(ptr noundef %31, i32 noundef %32, i32 noundef 3, i32 noundef %33)
  %34 = load ptr, ptr %8, align 8
  %35 = load i32, ptr %15, align 4
  %36 = load i32, ptr %12, align 4
  call void @ir_set_op(ptr noundef %34, i32 noundef %35, i32 noundef 4, i32 noundef %36)
  %37 = load ptr, ptr %8, align 8
  %38 = load i32, ptr %15, align 4
  %39 = load i32, ptr %13, align 4
  call void @ir_set_op(ptr noundef %37, i32 noundef %38, i32 noundef 5, i32 noundef %39)
  %40 = load ptr, ptr %8, align 8
  %41 = load i32, ptr %15, align 4
  %42 = load i32, ptr %14, align 4
  call void @ir_set_op(ptr noundef %40, i32 noundef %41, i32 noundef 6, i32 noundef %42)
  %43 = load i32, ptr %15, align 4
  %44 = load ptr, ptr %8, align 8
  %45 = getelementptr inbounds %struct._ir_ctx, ptr %44, i32 0, i32 40
  store i32 %43, ptr %45, align 8
  %46 = load i32, ptr %15, align 4
  ret i32 %46
}