; Function Attrs: nounwind uwtable
define hidden i32 @_ir_CALL_4(ptr nocapture noundef %0, i32 noundef %1, i32 noundef %2, i32 noundef %3, i32 noundef %4, i32 noundef %5, i32 noundef %6) local_unnamed_addr #0 {
  %8 = getelementptr inbounds i8, ptr %0, i64 8
  %9 = load i32, ptr %8, align 8
  %10 = add nsw i32 %9, 1
  %11 = getelementptr inbounds i8, ptr %0, i64 12
  %12 = load i32, ptr %11, align 4
  %.not22.i = icmp slt i32 %10, %12
  %.pre30.i = load ptr, ptr %0, align 8
  br i1 %.not22.i, label %ir_emit_N.exit, label %.lr.ph.i

.lr.ph.i:                                         ; preds = %7
  %13 = getelementptr inbounds i8, ptr %0, i64 20
  %.pre29.i = load i32, ptr %13, align 4
  br label %14

14:                                               ; preds = %14, %.lr.ph.i
  %15 = phi i32 [ %.pre29.i, %.lr.ph.i ], [ %29, %14 ]
  %16 = phi ptr [ %.pre30.i, %.lr.ph.i ], [ %31, %14 ]
  %17 = phi i32 [ %12, %.lr.ph.i ], [ %32, %14 ]
  %18 = icmp slt i32 %17, 4096
  %19 = shl nsw i32 %17, 1
  %20 = icmp ult i32 %17, 8192
  %21 = add nuw nsw i32 %17, 4096
  %spec.select.i.i = select i1 %20, i32 8192, i32 %21
  %.sink.i.i = select i1 %18, i32 %19, i32 %spec.select.i.i
  store i32 %.sink.i.i, ptr %11, align 4
  %22 = sext i32 %15 to i64
  %23 = sub nsw i64 0, %22
  %24 = getelementptr inbounds %struct._ir_insn, ptr %16, i64 %23
  %25 = add nsw i32 %.sink.i.i, %15
  %26 = sext i32 %25 to i64
  %27 = shl nsw i64 %26, 4
  %28 = tail call ptr @_erealloc(ptr noundef %24, i64 noundef %27) #24
  %29 = load i32, ptr %13, align 4
  %30 = sext i32 %29 to i64
  %31 = getelementptr inbounds %struct._ir_insn, ptr %28, i64 %30
  store ptr %31, ptr %0, align 8
  %32 = load i32, ptr %11, align 4
  %.not.i = icmp slt i32 %10, %32
  br i1 %.not.i, label %ir_emit_N.exit, label %14

ir_emit_N.exit:                                   ; preds = %14, %7
  %33 = phi ptr [ %.pre30.i, %7 ], [ %31, %14 ]
  %34 = shl i32 %1, 8
  %35 = and i32 %34, 16383744
  %36 = add i32 %9, 2
  store i32 %36, ptr %8, align 8
  %37 = sext i32 %9 to i64
  %38 = getelementptr inbounds %struct._ir_insn, ptr %33, i64 %37
  %39 = or disjoint i32 %35, 393285
  store i32 %39, ptr %38, align 8
  %40 = shl nsw i64 %37, 4
  %41 = or disjoint i64 %40, 4
  %scevgep.i = getelementptr i8, ptr %33, i64 %41
  tail call void @llvm.memset.p0.i64(ptr noundef nonnull align 4 dereferenceable(28) %scevgep.i, i8 0, i64 28, i1 false)
  %42 = getelementptr inbounds i8, ptr %0, i64 248
  %43 = load i32, ptr %42, align 8
  %44 = load ptr, ptr %0, align 8
  %45 = getelementptr inbounds %struct._ir_insn, ptr %44, i64 %37, i32 0, i32 1
  store i32 %43, ptr %45, align 4
  %46 = load ptr, ptr %0, align 8
  %47 = getelementptr inbounds %struct._ir_insn, ptr %46, i64 %37, i32 1
  store i32 %2, ptr %47, align 4
  %48 = load ptr, ptr %0, align 8
  %49 = getelementptr inbounds %struct._ir_insn, ptr %48, i64 %37
  %50 = getelementptr inbounds i8, ptr %49, i64 12
  store i32 %3, ptr %50, align 4
  %51 = load ptr, ptr %0, align 8
  %52 = getelementptr inbounds %struct._ir_insn, ptr %51, i64 %37
  %53 = getelementptr inbounds i8, ptr %52, i64 16
  store i32 %4, ptr %53, align 4
  %54 = load ptr, ptr %0, align 8
  %55 = getelementptr inbounds %struct._ir_insn, ptr %54, i64 %37
  %56 = getelementptr inbounds i8, ptr %55, i64 20
  store i32 %5, ptr %56, align 4
  %57 = load ptr, ptr %0, align 8
  %58 = getelementptr inbounds %struct._ir_insn, ptr %57, i64 %37
  %59 = getelementptr inbounds i8, ptr %58, i64 24
  store i32 %6, ptr %59, align 4
  store i32 %9, ptr %42, align 8
  ret i32 %9
}